; Function Attrs: nounwind uwtable
define hidden ptr @mi_heap_realloc_aligned(ptr noundef %0, ptr noundef %1, i64 noundef %2, i64 noundef %3) local_unnamed_addr #0 {
  %5 = icmp ult i64 %3, 9
  br i1 %5, label %6, label %8

6:                                                ; preds = %4
  %7 = tail call ptr @_mi_heap_realloc_zero(ptr noundef %0, ptr noundef %1, i64 noundef %2, i1 noundef zeroext false) #8
  br label %mi_heap_realloc_zero_aligned.exit

8:                                                ; preds = %4
  %9 = ptrtoint ptr %1 to i64
  %10 = urem i64 %9, %3
  %11 = tail call fastcc ptr @mi_heap_realloc_zero_aligned_at(ptr noundef %0, ptr noundef %1, i64 noundef %2, i64 noundef %3, i64 noundef %10, i1 noundef zeroext false)
  br label %mi_heap_realloc_zero_aligned.exit

mi_heap_realloc_zero_aligned.exit:                ; preds = %6, %8
  %.0.i = phi ptr [ %7, %6 ], [ %11, %8 ]
  ret ptr %.0.i
}